target datalayout = "e-m:e-p270:32:32-p271:32:32-p272:64:64-i64:64-i128:128-f80:128-n8:16:32:64-S128"
target triple = "x86_64-pc-linux-gnu"

%struct.asn1_string_st = type { i32, i32, ptr, i64 }
%struct.dsa_st = type { i32, i32, %struct.ffc_params_st, ptr, ptr, i32, ptr, %struct.CRYPTO_REF_COUNT, %struct.crypto_ex_data_st, ptr, ptr, ptr, ptr, i64 }
%struct.ffc_params_st = type { ptr, ptr, ptr, ptr, ptr, i64, i32, i32, i32, i32, i32, ptr, ptr, i32 }
%struct.CRYPTO_REF_COUNT = type { i32 }
%struct.crypto_ex_data_st = type { ptr, ptr }
%struct.evp_pkey_st = type { i32, i32, ptr, ptr, ptr, %union.legacy_pkey_st, %union.legacy_pkey_st, %struct.CRYPTO_REF_COUNT, ptr, ptr, i32, i8, %struct.crypto_ex_data_st, ptr, ptr, i64, ptr, i64, %struct.anon }
%union.legacy_pkey_st = type { ptr }
%struct.anon = type { i32, i32, i32 }

@.str.2 = private unnamed_addr constant [34 x i8] c"../openssl/crypto/dsa/dsa_ameth.c\00", align 1
@__func__.dsa_pub_encode = private unnamed_addr constant [15 x i8] c"dsa_pub_encode\00", align 1

; Function Attrs: nounwind uwtable
define internal i32 @dsa_pub_encode(ptr noundef %0, ptr noundef %1) #0 {
  %3 = alloca i32, align 4
  %4 = alloca ptr, align 8
  %5 = alloca ptr, align 8
  %6 = alloca ptr, align 8
  %7 = alloca i32, align 4
  %8 = alloca ptr, align 8
  %9 = alloca i32, align 4
  %10 = alloca ptr, align 8
  %11 = alloca ptr, align 8
  %12 = alloca ptr, align 8
  %13 = alloca i32, align 4
  store ptr %0, ptr %4, align 8, !tbaa !8
  store ptr %1, ptr %5, align 8, !tbaa !3
  call void @llvm.lifetime.start.p0(i64 8, ptr %6) #3
  call void @llvm.lifetime.start.p0(i64 4, ptr %7) #3
  call void @llvm.lifetime.start.p0(i64 8, ptr %8) #3
  store ptr null, ptr %8, align 8, !tbaa !23
  call void @llvm.lifetime.start.p0(i64 4, ptr %9) #3
  call void @llvm.lifetime.start.p0(i64 8, ptr %10) #3
  store ptr null, ptr %10, align 8, !tbaa !10
  call void @llvm.lifetime.start.p0(i64 8, ptr %11) #3
  store ptr null, ptr %11, align 8, !tbaa !10
  call void @llvm.lifetime.start.p0(i64 8, ptr %12) #3
  %14 = load ptr, ptr %5, align 8, !tbaa !3
  %15 = getelementptr inbounds nuw %struct.evp_pkey_st, ptr %14, i32 0, i32 5
  %16 = load ptr, ptr %15, align 8, !tbaa !37
  store ptr %16, ptr %6, align 8, !tbaa !12
  %17 = load ptr, ptr %5, align 8, !tbaa !3
  %18 = getelementptr inbounds nuw %struct.evp_pkey_st, ptr %17, i32 0, i32 10
  %19 = load i32, ptr %18, align 8, !tbaa !38
  %20 = icmp ne i32 %19, 0
  br i1 %20, label %21, label %57

21:                                               ; preds = %2
  %22 = load ptr, ptr %6, align 8, !tbaa !12
  %23 = getelementptr inbounds nuw %struct.dsa_st, ptr %22, i32 0, i32 2
  %24 = getelementptr inbounds nuw %struct.ffc_params_st, ptr %23, i32 0, i32 0
  %25 = load ptr, ptr %24, align 8, !tbaa !45
  %26 = icmp ne ptr %25, null
  br i1 %26, label %27, label %57

27:                                               ; preds = %21
  %28 = load ptr, ptr %6, align 8, !tbaa !12
  %29 = getelementptr inbounds nuw %struct.dsa_st, ptr %28, i32 0, i32 2
  %30 = getelementptr inbounds nuw %struct.ffc_params_st, ptr %29, i32 0, i32 1
  %31 = load ptr, ptr %30, align 8, !tbaa !46
  %32 = icmp ne ptr %31, null
  br i1 %32, label %33, label %57

33:                                               ; preds = %27
  %34 = load ptr, ptr %6, align 8, !tbaa !12
  %35 = getelementptr inbounds nuw %struct.dsa_st, ptr %34, i32 0, i32 2
  %36 = getelementptr inbounds nuw %struct.ffc_params_st, ptr %35, i32 0, i32 2
  %37 = load ptr, ptr %36, align 8, !tbaa !47
  %38 = icmp ne ptr %37, null
  br i1 %38, label %39, label %57

39:                                               ; preds = %33
  %40 = call ptr @ASN1_STRING_new()
  store ptr %40, ptr %10, align 8, !tbaa !10
  %41 = load ptr, ptr %10, align 8, !tbaa !10
  %42 = icmp eq ptr %41, null
  br i1 %42, label %43, label %44

43:                                               ; preds = %39
  call void @ERR_new()
  call void @ERR_set_debug(ptr noundef @.str.2, i32 noundef 104, ptr noundef @__func__.dsa_pub_encode)
  call void (i32, i32, ptr, ...) @ERR_set_error(i32 noundef 10, i32 noundef 524301, ptr noundef null)
  br label %89

44:                                               ; preds = %39
  %45 = load ptr, ptr %6, align 8, !tbaa !12
  %46 = load ptr, ptr %10, align 8, !tbaa !10
  %47 = getelementptr inbounds nuw %struct.asn1_string_st, ptr %46, i32 0, i32 2
  %48 = call i32 @i2d_DSAparams(ptr noundef %45, ptr noundef %47)
  %49 = load ptr, ptr %10, align 8, !tbaa !10
  %50 = getelementptr inbounds nuw %struct.asn1_string_st, ptr %49, i32 0, i32 0
  store i32 %48, ptr %50, align 8, !tbaa !24
  %51 = load ptr, ptr %10, align 8, !tbaa !10
  %52 = getelementptr inbounds nuw %struct.asn1_string_st, ptr %51, i32 0, i32 0
  %53 = load i32, ptr %52, align 8, !tbaa !24
  %54 = icmp sle i32 %53, 0
  br i1 %54, label %55, label %56

55:                                               ; preds = %44
  call void @ERR_new()
  call void @ERR_set_debug(ptr noundef @.str.2, i32 noundef 109, ptr noundef @__func__.dsa_pub_encode)
  call void (i32, i32, ptr, ...) @ERR_set_error(i32 noundef 10, i32 noundef 524301, ptr noundef null)
  br label %89

56:                                               ; preds = %44
  store i32 16, ptr %7, align 4, !tbaa !16
  br label %58

57:                                               ; preds = %33, %27, %21, %2
  store i32 -1, ptr %7, align 4, !tbaa !16
  br label %58

58:                                               ; preds = %57, %56
  %59 = load ptr, ptr %6, align 8, !tbaa !12
  %60 = getelementptr inbounds nuw %struct.dsa_st, ptr %59, i32 0, i32 3
  %61 = load ptr, ptr %60, align 8, !tbaa !25
  %62 = call ptr @BN_to_ASN1_INTEGER(ptr noundef %61, ptr noundef null)
  store ptr %62, ptr %11, align 8, !tbaa !10
  %63 = load ptr, ptr %11, align 8, !tbaa !10
  %64 = icmp eq ptr %63, null
  br i1 %64, label %65, label %66

65:                                               ; preds = %58
  call void @ERR_new()
  call void @ERR_set_debug(ptr noundef @.str.2, i32 noundef 119, ptr noundef @__func__.dsa_pub_encode)
  call void (i32, i32, ptr, ...) @ERR_set_error(i32 noundef 10, i32 noundef 524301, ptr noundef null)
  br label %89

66:                                               ; preds = %58
  %67 = load ptr, ptr %11, align 8, !tbaa !10
  %68 = call i32 @i2d_ASN1_INTEGER(ptr noundef %67, ptr noundef %8)
  store i32 %68, ptr %9, align 4, !tbaa !16
  %69 = load ptr, ptr %11, align 8, !tbaa !10
  call void @ASN1_INTEGER_free(ptr noundef %69)
  %70 = load i32, ptr %9, align 4, !tbaa !16
  %71 = icmp sle i32 %70, 0
  br i1 %71, label %72, label %73

72:                                               ; preds = %66
  call void @ERR_new()
  call void @ERR_set_debug(ptr noundef @.str.2, i32 noundef 127, ptr noundef @__func__.dsa_pub_encode)
  call void (i32, i32, ptr, ...) @ERR_set_error(i32 noundef 10, i32 noundef 524301, ptr noundef null)
  br label %89

73:                                               ; preds = %66
  %74 = call ptr @OBJ_nid2obj(i32 noundef 116)
  store ptr %74, ptr %12, align 8, !tbaa !48
  %75 = load ptr, ptr %12, align 8, !tbaa !48
  %76 = icmp eq ptr %75, null
  br i1 %76, label %77, label %78

77:                                               ; preds = %73
  br label %89

78:                                               ; preds = %73
  %79 = load ptr, ptr %4, align 8, !tbaa !8
  %80 = load ptr, ptr %12, align 8, !tbaa !48
  %81 = load i32, ptr %7, align 4, !tbaa !16
  %82 = load ptr, ptr %10, align 8, !tbaa !10
  %83 = load ptr, ptr %8, align 8, !tbaa !23
  %84 = load i32, ptr %9, align 4, !tbaa !16
  %85 = call i32 @X509_PUBKEY_set0_param(ptr noundef %79, ptr noundef %80, i32 noundef %81, ptr noundef %82, ptr noundef %83, i32 noundef %84)
  %86 = icmp ne i32 %85, 0
  br i1 %86, label %87, label %88

87:                                               ; preds = %78
  store i32 1, ptr %3, align 4
  store i32 1, ptr %13, align 4
  br label %92

88:                                               ; preds = %78
  br label %89

89:                                               ; preds = %88, %77, %72, %65, %55, %43
  %90 = load ptr, ptr %8, align 8, !tbaa !23
  call void @CRYPTO_free(ptr noundef %90, ptr noundef @.str.2, i32 noundef 139)
  %91 = load ptr, ptr %10, align 8, !tbaa !10
  call void @ASN1_STRING_free(ptr noundef %91)
  store i32 0, ptr %3, align 4
  store i32 1, ptr %13, align 4
  br label %92

92:                                               ; preds = %89, %87
  call void @llvm.lifetime.end.p0(i64 8, ptr %12) #3
  call void @llvm.lifetime.end.p0(i64 8, ptr %11) #3
  call void @llvm.lifetime.end.p0(i64 8, ptr %10) #3
  call void @llvm.lifetime.end.p0(i64 4, ptr %9) #3
  call void @llvm.lifetime.end.p0(i64 8, ptr %8) #3
  call void @llvm.lifetime.end.p0(i64 4, ptr %7) #3
  call void @llvm.lifetime.end.p0(i64 8, ptr %6) #3
  %93 = load i32, ptr %3, align 4
  ret i32 %93
}