; Function Attrs: nounwind uwtable
define internal range(i32 0, 2) i32 @dsa_pub_encode(ptr noundef %0, ptr noundef readonly captures(none) %1) #0 {
  %3 = alloca ptr, align 8
  call void @llvm.lifetime.start.p0(i64 8, ptr nonnull %3) #5
  store ptr null, ptr %3, align 8, !tbaa !15
  %4 = getelementptr inbounds nuw i8, ptr %1, i64 32
  %5 = load ptr, ptr %4, align 8, !tbaa !29
  %6 = getelementptr inbounds nuw i8, ptr %1, i64 72
  %7 = load i32, ptr %6, align 8, !tbaa !30
  %.not = icmp eq i32 %7, 0
  br i1 %.not, label %26, label %8

8:                                                ; preds = %2
  %9 = getelementptr inbounds nuw i8, ptr %5, i64 8
  %10 = load ptr, ptr %9, align 8, !tbaa !37
  %.not29 = icmp eq ptr %10, null
  br i1 %.not29, label %26, label %11

11:                                               ; preds = %8
  %12 = getelementptr inbounds nuw i8, ptr %5, i64 16
  %13 = load ptr, ptr %12, align 8, !tbaa !38
  %.not30 = icmp eq ptr %13, null
  br i1 %.not30, label %26, label %14

14:                                               ; preds = %11
  %15 = getelementptr inbounds nuw i8, ptr %5, i64 24
  %16 = load ptr, ptr %15, align 8, !tbaa !39
  %.not31 = icmp eq ptr %16, null
  br i1 %.not31, label %26, label %17

17:                                               ; preds = %14
  %18 = tail call ptr @ASN1_STRING_new() #5
  %19 = icmp eq ptr %18, null
  br i1 %19, label %20, label %21

20:                                               ; preds = %17
  tail call void @ERR_new() #5
  tail call void @ERR_set_debug(ptr noundef nonnull @.str.2, i32 noundef 104, ptr noundef nonnull @__func__.dsa_pub_encode) #5
  tail call void (i32, i32, ptr, ...) @ERR_set_error(i32 noundef 10, i32 noundef 524301, ptr noundef null) #5
  br label %42

21:                                               ; preds = %17
  %22 = getelementptr inbounds nuw i8, ptr %18, i64 8
  %23 = tail call i32 @i2d_DSAparams(ptr noundef nonnull %5, ptr noundef nonnull %22) #5
  store i32 %23, ptr %18, align 8, !tbaa !16
  %24 = icmp slt i32 %23, 1
  br i1 %24, label %25, label %26

25:                                               ; preds = %21
  tail call void @ERR_new() #5
  tail call void @ERR_set_debug(ptr noundef nonnull @.str.2, i32 noundef 109, ptr noundef nonnull @__func__.dsa_pub_encode) #5
  tail call void (i32, i32, ptr, ...) @ERR_set_error(i32 noundef 10, i32 noundef 524301, ptr noundef null) #5
  br label %42

26:                                               ; preds = %2, %8, %11, %14, %21
  %.023 = phi i32 [ 16, %21 ], [ -1, %14 ], [ -1, %11 ], [ -1, %8 ], [ -1, %2 ]
  %.1 = phi ptr [ %18, %21 ], [ null, %14 ], [ null, %11 ], [ null, %8 ], [ null, %2 ]
  %27 = getelementptr inbounds nuw i8, ptr %5, i64 104
  %28 = load ptr, ptr %27, align 8, !tbaa !17
  %29 = tail call ptr @BN_to_ASN1_INTEGER(ptr noundef %28, ptr noundef null) #5
  %30 = icmp eq ptr %29, null
  br i1 %30, label %31, label %32

31:                                               ; preds = %26
  tail call void @ERR_new() #5
  tail call void @ERR_set_debug(ptr noundef nonnull @.str.2, i32 noundef 119, ptr noundef nonnull @__func__.dsa_pub_encode) #5
  tail call void (i32, i32, ptr, ...) @ERR_set_error(i32 noundef 10, i32 noundef 524301, ptr noundef null) #5
  br label %42

32:                                               ; preds = %26
  %33 = call i32 @i2d_ASN1_INTEGER(ptr noundef nonnull %29, ptr noundef nonnull %3) #5
  call void @ASN1_INTEGER_free(ptr noundef nonnull %29) #5
  %34 = icmp slt i32 %33, 1
  br i1 %34, label %35, label %36

35:                                               ; preds = %32
  call void @ERR_new() #5
  call void @ERR_set_debug(ptr noundef nonnull @.str.2, i32 noundef 127, ptr noundef nonnull @__func__.dsa_pub_encode) #5
  call void (i32, i32, ptr, ...) @ERR_set_error(i32 noundef 10, i32 noundef 524301, ptr noundef null) #5
  br label %42

36:                                               ; preds = %32
  %37 = call ptr @OBJ_nid2obj(i32 noundef 116) #5
  %38 = icmp eq ptr %37, null
  br i1 %38, label %42, label %39

39:                                               ; preds = %36
  %40 = load ptr, ptr %3, align 8, !tbaa !15
  %41 = call i32 @X509_PUBKEY_set0_param(ptr noundef %0, ptr noundef nonnull %37, i32 noundef %.023, ptr noundef %.1, ptr noundef %40, i32 noundef %33) #5
  %.not32 = icmp eq i32 %41, 0
  br i1 %.not32, label %42, label %44

42:                                               ; preds = %39, %36, %35, %31, %25, %20
  %.022 = phi ptr [ null, %20 ], [ %18, %25 ], [ %.1, %31 ], [ %.1, %35 ], [ %.1, %36 ], [ %.1, %39 ]
  %43 = load ptr, ptr %3, align 8, !tbaa !15
  call void @CRYPTO_free(ptr noundef %43, ptr noundef nonnull @.str.2, i32 noundef 139) #5
  call void @ASN1_STRING_free(ptr noundef %.022) #5
  br label %44

44:                                               ; preds = %39, %42
  %.0 = phi i32 [ 0, %42 ], [ 1, %39 ]
  call void @llvm.lifetime.end.p0(i64 8, ptr nonnull %3) #5
  ret i32 %.0
}